; ModuleID = '49/905.c'
source_filename = "49/905.c"
target datalayout = "e-m:e-p270:32:32-p271:32:32-p272:64:64-i64:64-f80:128-n8:16:32:64-S128"
target triple = "x86_64-pc-linux-gnu"

@.str = private unnamed_addr constant [3 x i8] c"%s\00", align 1
@.str.1 = private unnamed_addr constant [3 x i8] c"%c\00", align 1
@.str.2 = private unnamed_addr constant [2 x i8] c"\0A\00", align 1

; Function Attrs: noinline nounwind uwtable
define dso_local i32 @main() #0 {
  %1 = alloca i32, align 4
  %2 = alloca [500 x i8], align 16
  %3 = alloca i8*, align 8
  %4 = alloca i32, align 4
  %5 = alloca i32, align 4
  %6 = alloca i32, align 4
  %7 = alloca i32, align 4
  %8 = alloca i32, align 4
  store i32 0, i32* %1, align 4
  %9 = getelementptr inbounds [500 x i8], [500 x i8]* %2, i64 0, i64 0
  %10 = call i32 (i8*, ...) @__isoc99_scanf(i8* getelementptr inbounds ([3 x i8], [3 x i8]* @.str, i64 0, i64 0), i8* %9)
  %11 = getelementptr inbounds [500 x i8], [500 x i8]* %2, i64 0, i64 0
  %12 = call i64 @strlen(i8* %11) #3
  %13 = trunc i64 %12 to i32
  store i32 %13, i32* %5, align 4
  store i32 2, i32* %4, align 4
  br label %14

14:                                               ; preds = %96, %0
  %15 = load i32, i32* %4, align 4
  %16 = load i32, i32* %5, align 4
  %17 = add nsw i32 %16, 1
  %18 = icmp slt i32 %15, %17
  br i1 %18, label %19, label %99

19:                                               ; preds = %14
  store i32 0, i32* %6, align 4
  br label %20

20:                                               ; preds = %92, %19
  %21 = load i32, i32* %6, align 4
  %22 = load i32, i32* %5, align 4
  %23 = load i32, i32* %4, align 4
  %24 = sub nsw i32 %22, %23
  %25 = icmp sle i32 %21, %24
  br i1 %25, label %26, label %95

26:                                               ; preds = %20
  store i32 0, i32* %7, align 4
  %27 = load i32, i32* %4, align 4
  %28 = sub nsw i32 %27, 1
  store i32 %28, i32* %8, align 4
  %29 = getelementptr inbounds [500 x i8], [500 x i8]* %2, i64 0, i64 0
  %30 = load i32, i32* %6, align 4
  %31 = sext i32 %30 to i64
  %32 = getelementptr inbounds i8, i8* %29, i64 %31
  store i8* %32, i8** %3, align 8
  br label %33

33:                                               ; preds = %60, %26
  %34 = load i8*, i8** %3, align 8
  %35 = getelementptr inbounds [500 x i8], [500 x i8]* %2, i64 0, i64 0
  %36 = load i32, i32* %6, align 4
  %37 = sext i32 %36 to i64
  %38 = getelementptr inbounds i8, i8* %35, i64 %37
  %39 = load i32, i32* %4, align 4
  %40 = sext i32 %39 to i64
  %41 = getelementptr inbounds i8, i8* %38, i64 %40
  %42 = icmp ult i8* %34, %41
  br i1 %42, label %43, label %63

43:                                               ; preds = %33
  %44 = load i8*, i8** %3, align 8
  %45 = load i8, i8* %44, align 1
  %46 = sext i8 %45 to i32
  %47 = load i8*, i8** %3, align 8
  %48 = load i32, i32* %8, align 4
  %49 = sext i32 %48 to i64
  %50 = getelementptr inbounds i8, i8* %47, i64 %49
  %51 = load i8, i8* %50, align 1
  %52 = sext i8 %51 to i32
  %53 = icmp ne i32 %46, %52
  br i1 %53, label %54, label %57

54:                                               ; preds = %43
  %55 = load i32, i32* %7, align 4
  %56 = add nsw i32 %55, 1
  store i32 %56, i32* %7, align 4
  br label %57

57:                                               ; preds = %54, %43
  %58 = load i32, i32* %8, align 4
  %59 = sub nsw i32 %58, 2
  store i32 %59, i32* %8, align 4
  br label %60

60:                                               ; preds = %57
  %61 = load i8*, i8** %3, align 8
  %62 = getelementptr inbounds i8, i8* %61, i32 1
  store i8* %62, i8** %3, align 8
  br label %33

63:                                               ; preds = %33
  %64 = load i32, i32* %7, align 4
  %65 = icmp eq i32 %64, 0
  br i1 %65, label %66, label %91

66:                                               ; preds = %63
  %67 = getelementptr inbounds [500 x i8], [500 x i8]* %2, i64 0, i64 0
  %68 = load i32, i32* %6, align 4
  %69 = sext i32 %68 to i64
  %70 = getelementptr inbounds i8, i8* %67, i64 %69
  store i8* %70, i8** %3, align 8
  br label %71

71:                                               ; preds = %86, %66
  %72 = load i8*, i8** %3, align 8
  %73 = getelementptr inbounds [500 x i8], [500 x i8]* %2, i64 0, i64 0
  %74 = load i32, i32* %6, align 4
  %75 = sext i32 %74 to i64
  %76 = getelementptr inbounds i8, i8* %73, i64 %75
  %77 = load i32, i32* %4, align 4
  %78 = sext i32 %77 to i64
  %79 = getelementptr inbounds i8, i8* %76, i64 %78
  %80 = icmp ult i8* %72, %79
  br i1 %80, label %81, label %89

81:                                               ; preds = %71
  %82 = load i8*, i8** %3, align 8
  %83 = load i8, i8* %82, align 1
  %84 = sext i8 %83 to i32
  %85 = call i32 (i8*, ...) @printf(i8* getelementptr inbounds ([3 x i8], [3 x i8]* @.str.1, i64 0, i64 0), i32 %84)
  br label %86

86:                                               ; preds = %81
  %87 = load i8*, i8** %3, align 8
  %88 = getelementptr inbounds i8, i8* %87, i32 1
  store i8* %88, i8** %3, align 8
  br label %71

89:                                               ; preds = %71
  %90 = call i32 (i8*, ...) @printf(i8* getelementptr inbounds ([2 x i8], [2 x i8]* @.str.2, i64 0, i64 0))
  br label %91

91:                                               ; preds = %89, %63
  br label %92

92:                                               ; preds = %91
  %93 = load i32, i32* %6, align 4
  %94 = add nsw i32 %93, 1
  store i32 %94, i32* %6, align 4
  br label %20

95:                                               ; preds = %20
  br label %96

96:                                               ; preds = %95
  %97 = load i32, i32* %4, align 4
  %98 = add nsw i32 %97, 1
  store i32 %98, i32* %4, align 4
  br label %14

99:                                               ; preds = %14
  ret i32 0
}

declare dso_local i32 @__isoc99_scanf(i8*, ...) #1

; Function Attrs: nounwind readonly
declare dso_local i64 @strlen(i8*) #2

declare dso_local i32 @printf(i8*, ...) #1


!llvm.module.flags = !{!0}
!llvm.ident = !{!1}

!0 = !{i32 1, !"wchar_size", i32 4}
!1 = !{!"clang version 10.0.0-4ubuntu1 "}
